; Function Attrs: mustprogress uwtable
define dso_local void @_ZNK4pbrt20BilinearIntersection8ToStringB5cxx11Ev(ptr dead_on_unwind noalias writable sret(%"class.std::__cxx11::basic_string") align 8 %0, ptr noundef nonnull align 4 dereferenceable(12) %1) local_unnamed_addr #4 align 2 personality ptr @__gxx_personality_v0 {
  %3 = getelementptr inbounds nuw i8, ptr %1, i64 8
  %4 = getelementptr inbounds nuw i8, ptr %0, i64 16
  store ptr %4, ptr %0, align 8, !tbaa !46, !alias.scope !299
  %5 = getelementptr inbounds nuw i8, ptr %0, i64 8
  store i64 0, ptr %5, align 8, !tbaa !52, !alias.scope !299
  store i8 0, ptr %4, align 8, !tbaa !54, !alias.scope !299
  invoke void @_ZN4pbrt6detail21stringPrintfRecursiveIRKNS_6Point2IfEEJRKfEEEvPNSt7__cxx1112basic_stringIcSt11char_traitsIcESaIcEEEPKcOT_DpOT0_(ptr noundef nonnull align 8 %0, ptr noundef nonnull @.str.73, ptr noundef nonnull align 4 dereferenceable(8) %1, ptr noundef nonnull align 4 dereferenceable(4) %3)
          to label %_ZN4pbrt12StringPrintfIJRKNS_6Point2IfEERKfEEENSt7__cxx1112basic_stringIcSt11char_traitsIcESaIcEEEPKcDpOT_.exit unwind label %6

6:                                                ; preds = %2
  %7 = landingpad { ptr, i32 }
          cleanup
  %8 = load ptr, ptr %0, align 8, !tbaa !55, !alias.scope !299
  %9 = icmp eq ptr %8, %4
  br i1 %9, label %_ZNKSt7__cxx1112basic_stringIcSt11char_traitsIcESaIcEE11_M_is_localEv.exit.thread.i.i.i, label %_ZNKSt7__cxx1112basic_stringIcSt11char_traitsIcESaIcEE11_M_is_localEv.exit.i.i.i

_ZNKSt7__cxx1112basic_stringIcSt11char_traitsIcESaIcEE11_M_is_localEv.exit.thread.i.i.i: ; preds = %6
  %10 = load i64, ptr %5, align 8, !tbaa !52, !alias.scope !299
  %11 = icmp ult i64 %10, 16
  tail call void @llvm.assume(i1 %11)
  br label %_ZNSt7__cxx1112basic_stringIcSt11char_traitsIcESaIcEED2Ev.exit.i

_ZNKSt7__cxx1112basic_stringIcSt11char_traitsIcESaIcEE11_M_is_localEv.exit.i.i.i: ; preds = %6
  %12 = load i64, ptr %4, align 8, !tbaa !54, !alias.scope !299
  %13 = add i64 %12, 1
  tail call void @_ZdlPvm(ptr noundef %8, i64 noundef %13) #32
  br label %_ZNSt7__cxx1112basic_stringIcSt11char_traitsIcESaIcEED2Ev.exit.i

_ZNSt7__cxx1112basic_stringIcSt11char_traitsIcESaIcEED2Ev.exit.i: ; preds = %_ZNKSt7__cxx1112basic_stringIcSt11char_traitsIcESaIcEE11_M_is_localEv.exit.i.i.i, %_ZNKSt7__cxx1112basic_stringIcSt11char_traitsIcESaIcEE11_M_is_localEv.exit.thread.i.i.i
  resume { ptr, i32 } %7

_ZN4pbrt12StringPrintfIJRKNS_6Point2IfEERKfEEENSt7__cxx1112basic_stringIcSt11char_traitsIcESaIcEEEPKcDpOT_.exit: ; preds = %2
  ret void
}